target datalayout = "e-m:e-p270:32:32-p271:32:32-p272:64:64-i64:64-i128:128-f80:128-n8:16:32:64-S128"
target triple = "x86_64-pc-linux-gnu"

%struct.fstatat_args = type { i32, i32, ptr, ptr }

; Function Attrs: nounwind sspstrong uwtable
define internal ptr @nogvl_fstatat(ptr noundef %0) #0 {
  %2 = alloca ptr, align 8
  %3 = alloca ptr, align 8
  store ptr %0, ptr %2, align 8, !tbaa !14
  call void @llvm.lifetime.start.p0(i64 8, ptr %3) #26
  %4 = load ptr, ptr %2, align 8, !tbaa !14
  store ptr %4, ptr %3, align 8, !tbaa !152
  %5 = load ptr, ptr %3, align 8, !tbaa !152
  %6 = getelementptr inbounds nuw %struct.fstatat_args, ptr %5, i32 0, i32 0
  %7 = load i32, ptr %6, align 8, !tbaa !132
  %8 = load ptr, ptr %3, align 8, !tbaa !152
  %9 = getelementptr inbounds nuw %struct.fstatat_args, ptr %8, i32 0, i32 2
  %10 = load ptr, ptr %9, align 8, !tbaa !134
  %11 = load ptr, ptr %3, align 8, !tbaa !152
  %12 = getelementptr inbounds nuw %struct.fstatat_args, ptr %11, i32 0, i32 3
  %13 = load ptr, ptr %12, align 8, !tbaa !135
  %14 = load ptr, ptr %3, align 8, !tbaa !152
  %15 = getelementptr inbounds nuw %struct.fstatat_args, ptr %14, i32 0, i32 1
  %16 = load i32, ptr %15, align 4, !tbaa !136
  %17 = call i32 @fstatat(i32 noundef %7, ptr noundef %10, ptr noundef %13, i32 noundef %16) #26
  %18 = sext i32 %17 to i64
  %19 = inttoptr i64 %18 to ptr
  call void @llvm.lifetime.end.p0(i64 8, ptr %3) #26
  ret ptr %19
}