; Function Attrs: nounwind sspstrong uwtable
define internal ptr @nogvl_fstatat(ptr noundef readonly captures(none) %0) #0 {
  %2 = load i32, ptr %0, align 8, !tbaa !137
  %3 = getelementptr inbounds nuw i8, ptr %0, i64 8
  %4 = load ptr, ptr %3, align 8, !tbaa !140
  %5 = getelementptr inbounds nuw i8, ptr %0, i64 16
  %6 = load ptr, ptr %5, align 8, !tbaa !141
  %7 = getelementptr inbounds nuw i8, ptr %0, i64 4
  %8 = load i32, ptr %7, align 4, !tbaa !142
  %9 = tail call i32 @fstatat(i32 noundef %2, ptr noundef %4, ptr noundef %6, i32 noundef %8) #22
  %10 = sext i32 %9 to i64
  %11 = inttoptr i64 %10 to ptr
  ret ptr %11
}